; Function Attrs: mustprogress nofree norecurse nosync nounwind sspstrong willreturn memory(read, inaccessiblemem: none) uwtable
define internal range(i64 -1, 1) i64 @virtio_pci_notify_read(ptr noundef readonly captures(none) %0, i64 %1, i32 %2) #6 {
  %4 = getelementptr i8, ptr %0, i64 34160
  %.val = load ptr, ptr %4, align 8
  %.not.i = icmp eq ptr %.val, null
  br i1 %.not.i, label %virtio_bus_get_device.exit, label %5

5:                                                ; preds = %3
  %6 = getelementptr inbounds nuw i8, ptr %.val, i64 16
  %7 = load ptr, ptr %6, align 8
  %8 = icmp eq ptr %7, null
  %9 = sext i1 %8 to i64
  br label %virtio_bus_get_device.exit

virtio_bus_get_device.exit:                       ; preds = %3, %5
  %. = phi i64 [ %9, %5 ], [ -1, %3 ]
  ret i64 %.
}